target datalayout = "e-m:e-p270:32:32-p271:32:32-p272:64:64-i64:64-i128:128-f80:128-n8:16:32:64-S128"
target triple = "x86_64-pc-linux-gnu"

%"class.Ipopt::Matrix.base" = type <{ %"class.Ipopt::TaggedObject", %"class.Ipopt::SmartPtr", i32, i8 }>
%"class.Ipopt::TaggedObject" = type { %"class.Ipopt::ReferencedObject.base", %"class.Ipopt::Subject", i32, i32 }
%"class.Ipopt::ReferencedObject.base" = type <{ ptr, i32 }>
%"class.Ipopt::Subject" = type { ptr, %"class.std::vector" }
%"class.std::vector" = type { %"struct.std::_Vector_base" }
%"struct.std::_Vector_base" = type { %"struct.std::_Vector_base<Ipopt::Observer *, std::allocator<Ipopt::Observer *>>::_Vector_impl" }
%"struct.std::_Vector_base<Ipopt::Observer *, std::allocator<Ipopt::Observer *>>::_Vector_impl" = type { %"struct.std::_Vector_base<Ipopt::Observer *, std::allocator<Ipopt::Observer *>>::_Vector_impl_data" }
%"struct.std::_Vector_base<Ipopt::Observer *, std::allocator<Ipopt::Observer *>>::_Vector_impl_data" = type { ptr, ptr, ptr }
%"class.Ipopt::SmartPtr" = type { ptr }
%"class.Ipopt::MatrixSpace.base" = type { %"class.Ipopt::ReferencedObject.base", i32, i32 }
%"class.Ipopt::ExpansionMatrix" = type { %"class.Ipopt::Matrix.base", ptr }
%"class.Ipopt::ExpansionMatrixSpace" = type { %"class.Ipopt::MatrixSpace.base", ptr, ptr }

; Function Attrs: mustprogress nounwind uwtable
define linkonce_odr noundef ptr @_ZNK5Ipopt20ExpansionMatrixSpace18ExpandedPosIndicesEv(ptr noundef nonnull align 8 dereferenceable(40) %0) #4 comdat align 2 {
  %2 = alloca ptr, align 8
  store ptr %0, ptr %2, align 8, !tbaa !288
  %3 = load ptr, ptr %2, align 8
  %4 = getelementptr inbounds nuw %"class.Ipopt::ExpansionMatrixSpace", ptr %3, i32 0, i32 1
  %5 = load ptr, ptr %4, align 8, !tbaa !289
  ret ptr %5
}

; Function Attrs: inlinehint mustprogress uwtable
define linkonce_odr noundef ptr @_ZNK5Ipopt15ExpansionMatrix18ExpandedPosIndicesEv(ptr noundef nonnull align 8 dereferenceable(80) %0) #3 comdat align 2 {
  %2 = alloca ptr, align 8
  store ptr %0, ptr %2, align 8, !tbaa !20
  %3 = load ptr, ptr %2, align 8
  %4 = getelementptr inbounds nuw %"class.Ipopt::ExpansionMatrix", ptr %3, i32 0, i32 1
  %5 = load ptr, ptr %4, align 8, !tbaa !179
  %6 = call noundef ptr @_ZNK5Ipopt20ExpansionMatrixSpace18ExpandedPosIndicesEv(ptr noundef nonnull align 8 dereferenceable(40) %5)
  ret ptr %6
}

; Function Attrs: mustprogress uwtable
define void @_ZN5Ipopt13TripletHelper11FillRowCol_EiRKNS_15ExpansionMatrixEiiPiS4_(i32 noundef %0, ptr noundef nonnull align 8 dereferenceable(80) %1, i32 noundef %2, i32 noundef %3, ptr noundef %4, ptr noundef %5) #0 align 2 {
  %7 = alloca i32, align 4
  %8 = alloca ptr, align 8
  %9 = alloca i32, align 4
  %10 = alloca i32, align 4
  %11 = alloca ptr, align 8
  %12 = alloca ptr, align 8
  %13 = alloca ptr, align 8
  %14 = alloca i32, align 4
  store i32 %0, ptr %7, align 4, !tbaa !72
  store ptr %1, ptr %8, align 8, !tbaa !20
  store i32 %2, ptr %9, align 4, !tbaa !72
  store i32 %3, ptr %10, align 4, !tbaa !72
  store ptr %4, ptr %11, align 8, !tbaa !92
  store ptr %5, ptr %12, align 8, !tbaa !92
  call void @llvm.lifetime.start.p0(i64 8, ptr %13) #15
  %15 = load ptr, ptr %8, align 8, !tbaa !20
  %16 = call noundef ptr @_ZNK5Ipopt15ExpansionMatrix18ExpandedPosIndicesEv(ptr noundef nonnull align 8 dereferenceable(80) %15)
  store ptr %16, ptr %13, align 8, !tbaa !92
  %17 = load i32, ptr %9, align 4, !tbaa !72
  %18 = add nsw i32 %17, 1
  store i32 %18, ptr %9, align 4, !tbaa !72
  %19 = load i32, ptr %10, align 4, !tbaa !72
  %20 = add nsw i32 %19, 1
  store i32 %20, ptr %10, align 4, !tbaa !72
  call void @llvm.lifetime.start.p0(i64 4, ptr %14) #15
  store i32 0, ptr %14, align 4, !tbaa !72
  br label %21

21:                                               ; preds = %45, %6
  %22 = load i32, ptr %14, align 4, !tbaa !72
  %23 = load i32, ptr %7, align 4, !tbaa !72
  %24 = icmp slt i32 %22, %23
  br i1 %24, label %26, label %25

25:                                               ; preds = %21
  call void @llvm.lifetime.end.p0(i64 4, ptr %14) #15
  br label %48

26:                                               ; preds = %21
  %27 = load ptr, ptr %13, align 8, !tbaa !92
  %28 = load i32, ptr %14, align 4, !tbaa !72
  %29 = sext i32 %28 to i64
  %30 = getelementptr inbounds i32, ptr %27, i64 %29
  %31 = load i32, ptr %30, align 4, !tbaa !72
  %32 = load i32, ptr %9, align 4, !tbaa !72
  %33 = add nsw i32 %31, %32
  %34 = load ptr, ptr %11, align 8, !tbaa !92
  %35 = load i32, ptr %14, align 4, !tbaa !72
  %36 = sext i32 %35 to i64
  %37 = getelementptr inbounds i32, ptr %34, i64 %36
  store i32 %33, ptr %37, align 4, !tbaa !72
  %38 = load i32, ptr %14, align 4, !tbaa !72
  %39 = load i32, ptr %10, align 4, !tbaa !72
  %40 = add nsw i32 %38, %39
  %41 = load ptr, ptr %12, align 8, !tbaa !92
  %42 = load i32, ptr %14, align 4, !tbaa !72
  %43 = sext i32 %42 to i64
  %44 = getelementptr inbounds i32, ptr %41, i64 %43
  store i32 %40, ptr %44, align 4, !tbaa !72
  br label %45

45:                                               ; preds = %26
  %46 = load i32, ptr %14, align 4, !tbaa !72
  %47 = add nsw i32 %46, 1
  store i32 %47, ptr %14, align 4, !tbaa !72
  br label %21, !llvm.loop !98

48:                                               ; preds = %25
  call void @llvm.lifetime.end.p0(i64 8, ptr %13) #15
  ret void
}